; ModuleID = '45/438.c'
source_filename = "45/438.c"
target datalayout = "e-m:e-p270:32:32-p271:32:32-p272:64:64-i64:64-f80:128-n8:16:32:64-S128"
target triple = "x86_64-pc-linux-gnu"

@.str = private unnamed_addr constant [6 x i8] c"%s %s\00", align 1
@.str.1 = private unnamed_addr constant [3 x i8] c"%d\00", align 1

; Function Attrs: noinline nounwind uwtable
define dso_local void @main() #0 {
  %1 = alloca [50 x i8], align 16
  %2 = alloca [50 x i8], align 16
  %3 = alloca [50 x i8], align 16
  %4 = alloca i32, align 4
  %5 = alloca i32, align 4
  %6 = alloca i32, align 4
  %7 = alloca i32, align 4
  %8 = alloca i32, align 4
  %9 = alloca i8*, align 8
  %10 = alloca i8*, align 8
  %11 = bitcast [50 x i8]* %3 to i8*
  call void @llvm.memset.p0i8.i64(i8* align 16 %11, i8 0, i64 50, i1 false)
  %12 = getelementptr inbounds [50 x i8], [50 x i8]* %2, i64 0, i64 0
  store i8* %12, i8** %9, align 8
  %13 = getelementptr inbounds [50 x i8], [50 x i8]* %3, i64 0, i64 0
  store i8* %13, i8** %10, align 8
  %14 = getelementptr inbounds [50 x i8], [50 x i8]* %1, i64 0, i64 0
  %15 = getelementptr inbounds [50 x i8], [50 x i8]* %2, i64 0, i64 0
  %16 = call i32 (i8*, ...) @__isoc99_scanf(i8* getelementptr inbounds ([6 x i8], [6 x i8]* @.str, i64 0, i64 0), i8* %14, i8* %15)
  %17 = getelementptr inbounds [50 x i8], [50 x i8]* %1, i64 0, i64 0
  %18 = call i64 @strlen(i8* %17) #4
  %19 = trunc i64 %18 to i32
  store i32 %19, i32* %6, align 4
  %20 = getelementptr inbounds [50 x i8], [50 x i8]* %2, i64 0, i64 0
  %21 = call i64 @strlen(i8* %20) #4
  %22 = trunc i64 %21 to i32
  store i32 %22, i32* %7, align 4
  store i32 0, i32* %4, align 4
  br label %23

23:                                               ; preds = %60, %0
  %24 = load i32, i32* %4, align 4
  %25 = load i32, i32* %7, align 4
  %26 = icmp slt i32 %24, %25
  br i1 %26, label %27, label %63

27:                                               ; preds = %23
  %28 = load i32, i32* %4, align 4
  store i32 %28, i32* %5, align 4
  br label %29

29:                                               ; preds = %49, %27
  %30 = load i32, i32* %5, align 4
  %31 = load i32, i32* %4, align 4
  %32 = load i32, i32* %6, align 4
  %33 = add nsw i32 %31, %32
  %34 = icmp slt i32 %30, %33
  br i1 %34, label %35, label %52

35:                                               ; preds = %29
  %36 = load i8*, i8** %9, align 8
  %37 = load i32, i32* %5, align 4
  %38 = sext i32 %37 to i64
  %39 = getelementptr inbounds i8, i8* %36, i64 %38
  %40 = load i8, i8* %39, align 1
  %41 = load i8*, i8** %10, align 8
  %42 = load i32, i32* %5, align 4
  %43 = sext i32 %42 to i64
  %44 = getelementptr inbounds i8, i8* %41, i64 %43
  %45 = load i32, i32* %4, align 4
  %46 = sext i32 %45 to i64
  %47 = sub i64 0, %46
  %48 = getelementptr inbounds i8, i8* %44, i64 %47
  store i8 %40, i8* %48, align 1
  br label %49

49:                                               ; preds = %35
  %50 = load i32, i32* %5, align 4
  %51 = add nsw i32 %50, 1
  store i32 %51, i32* %5, align 4
  br label %29

52:                                               ; preds = %29
  %53 = getelementptr inbounds [50 x i8], [50 x i8]* %3, i64 0, i64 0
  %54 = getelementptr inbounds [50 x i8], [50 x i8]* %1, i64 0, i64 0
  %55 = call i32 @strcmp(i8* %53, i8* %54) #4
  %56 = icmp eq i32 %55, 0
  br i1 %56, label %57, label %59

57:                                               ; preds = %52
  %58 = load i32, i32* %4, align 4
  store i32 %58, i32* %8, align 4
  br label %63

59:                                               ; preds = %52
  br label %60

60:                                               ; preds = %59
  %61 = load i32, i32* %4, align 4
  %62 = add nsw i32 %61, 1
  store i32 %62, i32* %4, align 4
  br label %23

63:                                               ; preds = %57, %23
  %64 = load i32, i32* %8, align 4
  %65 = call i32 (i8*, ...) @printf(i8* getelementptr inbounds ([3 x i8], [3 x i8]* @.str.1, i64 0, i64 0), i32 %64)
  ret void
}

; Function Attrs: argmemonly nounwind willreturn
declare void @llvm.memset.p0i8.i64(i8* nocapture writeonly, i8, i64, i1 immarg) #1

declare dso_local i32 @__isoc99_scanf(i8*, ...) #2

; Function Attrs: nounwind readonly
declare dso_local i64 @strlen(i8*) #3

; Function Attrs: nounwind readonly
declare dso_local i32 @strcmp(i8*, i8*) #3

declare dso_local i32 @printf(i8*, ...) #2


!llvm.module.flags = !{!0}
!llvm.ident = !{!1}

!0 = !{i32 1, !"wchar_size", i32 4}
!1 = !{!"clang version 10.0.0-4ubuntu1 "}
